; Function Attrs: nounwind uwtable
define ptr @l_Array_forIn_x27Unsafe_loop___at_Lake_RBArray_forIn___spec__1___rarg___lambda__1(ptr noundef %0, i64 noundef %1, ptr noundef %2, ptr noundef %3, ptr noundef %4, ptr noundef %5, i64 noundef %6, ptr noundef %7) local_unnamed_addr #0 {
  %9 = ptrtoint ptr %7 to i64
  %10 = and i64 %9, 1
  %.not.i55 = icmp eq i64 %10, 0
  br i1 %.not.i55, label %14, label %11

11:                                               ; preds = %8
  %12 = lshr i64 %9, 1
  %13 = trunc i64 %12 to i32
  br label %lean_obj_tag.exit

14:                                               ; preds = %8
  %15 = getelementptr i8, ptr %7, i64 4
  %.val.i = load i32, ptr %15, align 4
  %16 = lshr i32 %.val.i, 24
  br label %lean_obj_tag.exit

lean_obj_tag.exit:                                ; preds = %11, %14
  %.0.i = phi i32 [ %13, %11 ], [ %16, %14 ]
  %17 = icmp eq i32 %.0.i, 0
  br i1 %17, label %18, label %109

18:                                               ; preds = %lean_obj_tag.exit
  %19 = ptrtoint ptr %5 to i64
  %20 = and i64 %19, 1
  %.not68 = icmp eq i64 %20, 0
  br i1 %.not68, label %21, label %lean_dec.exit37

21:                                               ; preds = %18
  %22 = load i32, ptr %5, align 4, !tbaa !8
  %23 = icmp sgt i32 %22, 1
  br i1 %23, label %24, label %26, !prof !13

24:                                               ; preds = %21
  %25 = add nsw i32 %22, -1
  store i32 %25, ptr %5, align 4, !tbaa !8
  br label %lean_dec.exit37

26:                                               ; preds = %21
  %.not.i = icmp eq i32 %22, 0
  br i1 %.not.i, label %lean_dec.exit37, label %27

27:                                               ; preds = %26
  tail call void @lean_dec_ref_cold(ptr noundef nonnull %5) #4
  br label %lean_dec.exit37

lean_dec.exit37:                                  ; preds = %27, %26, %24, %18
  %28 = ptrtoint ptr %4 to i64
  %29 = and i64 %28, 1
  %.not69 = icmp eq i64 %29, 0
  br i1 %.not69, label %30, label %lean_dec.exit36

30:                                               ; preds = %lean_dec.exit37
  %31 = load i32, ptr %4, align 4, !tbaa !8
  %32 = icmp sgt i32 %31, 1
  br i1 %32, label %33, label %35, !prof !13

33:                                               ; preds = %30
  %34 = add nsw i32 %31, -1
  store i32 %34, ptr %4, align 4, !tbaa !8
  br label %lean_dec.exit36

35:                                               ; preds = %30
  %.not.i41 = icmp eq i32 %31, 0
  br i1 %.not.i41, label %lean_dec.exit36, label %36

36:                                               ; preds = %35
  tail call void @lean_dec_ref_cold(ptr noundef nonnull %4) #4
  br label %lean_dec.exit36

lean_dec.exit36:                                  ; preds = %36, %35, %33, %lean_dec.exit37
  %37 = ptrtoint ptr %3 to i64
  %38 = and i64 %37, 1
  %.not70 = icmp eq i64 %38, 0
  br i1 %.not70, label %39, label %lean_dec.exit35

39:                                               ; preds = %lean_dec.exit36
  %40 = load i32, ptr %3, align 4, !tbaa !8
  %41 = icmp sgt i32 %40, 1
  br i1 %41, label %42, label %44, !prof !13

42:                                               ; preds = %39
  %43 = add nsw i32 %40, -1
  store i32 %43, ptr %3, align 4, !tbaa !8
  br label %lean_dec.exit35

44:                                               ; preds = %39
  %.not.i43 = icmp eq i32 %40, 0
  br i1 %.not.i43, label %lean_dec.exit35, label %45

45:                                               ; preds = %44
  tail call void @lean_dec_ref_cold(ptr noundef nonnull %3) #4
  br label %lean_dec.exit35

lean_dec.exit35:                                  ; preds = %45, %44, %42, %lean_dec.exit36
  %46 = ptrtoint ptr %2 to i64
  %47 = and i64 %46, 1
  %.not71 = icmp eq i64 %47, 0
  br i1 %.not71, label %48, label %lean_dec.exit34

48:                                               ; preds = %lean_dec.exit35
  %49 = load i32, ptr %2, align 4, !tbaa !8
  %50 = icmp sgt i32 %49, 1
  br i1 %50, label %51, label %53, !prof !13

51:                                               ; preds = %48
  %52 = add nsw i32 %49, -1
  store i32 %52, ptr %2, align 4, !tbaa !8
  br label %lean_dec.exit34

53:                                               ; preds = %48
  %.not.i45 = icmp eq i32 %49, 0
  br i1 %.not.i45, label %lean_dec.exit34, label %54

54:                                               ; preds = %53
  tail call void @lean_dec_ref_cold(ptr noundef nonnull %2) #4
  br label %lean_dec.exit34

lean_dec.exit34:                                  ; preds = %54, %53, %51, %lean_dec.exit35
  %55 = getelementptr inbounds nuw i8, ptr %7, i64 8
  %56 = load ptr, ptr %55, align 8, !tbaa !4
  %57 = ptrtoint ptr %56 to i64
  %58 = and i64 %57, 1
  %.not72 = icmp eq i64 %58, 0
  br i1 %.not72, label %59, label %lean_inc.exit40

59:                                               ; preds = %lean_dec.exit34
  %.val.i56 = load i32, ptr %56, align 4, !tbaa !8
  %60 = icmp sgt i32 %.val.i56, 0
  br i1 %60, label %61, label %63, !prof !13

61:                                               ; preds = %59
  %62 = add nuw i32 %.val.i56, 1
  store i32 %62, ptr %56, align 4, !tbaa !8
  br label %lean_inc.exit40

63:                                               ; preds = %59
  %.not.i57 = icmp eq i32 %.val.i56, 0
  br i1 %.not.i57, label %lean_inc.exit40, label %64

64:                                               ; preds = %63
  tail call void @lean_inc_ref_cold(ptr noundef nonnull %56) #4
  br label %lean_inc.exit40

lean_inc.exit40:                                  ; preds = %64, %63, %61, %lean_dec.exit34
  br i1 %.not.i55, label %65, label %lean_dec.exit33

65:                                               ; preds = %lean_inc.exit40
  %66 = load i32, ptr %7, align 4, !tbaa !8
  %67 = icmp sgt i32 %66, 1
  br i1 %67, label %68, label %70, !prof !13

68:                                               ; preds = %65
  %69 = add nsw i32 %66, -1
  store i32 %69, ptr %7, align 4, !tbaa !8
  br label %lean_dec.exit33

70:                                               ; preds = %65
  %.not.i47 = icmp eq i32 %66, 0
  br i1 %.not.i47, label %lean_dec.exit33, label %71

71:                                               ; preds = %70
  tail call void @lean_dec_ref_cold(ptr noundef nonnull %7) #4
  br label %lean_dec.exit33

lean_dec.exit33:                                  ; preds = %71, %70, %68, %lean_inc.exit40
  %72 = getelementptr inbounds nuw i8, ptr %0, i64 8
  %73 = load ptr, ptr %72, align 8, !tbaa !4
  %74 = ptrtoint ptr %73 to i64
  %75 = and i64 %74, 1
  %.not74 = icmp eq i64 %75, 0
  br i1 %.not74, label %76, label %lean_inc.exit39

76:                                               ; preds = %lean_dec.exit33
  %.val.i58 = load i32, ptr %73, align 4, !tbaa !8
  %77 = icmp sgt i32 %.val.i58, 0
  br i1 %77, label %78, label %80, !prof !13

78:                                               ; preds = %76
  %79 = add nuw i32 %.val.i58, 1
  store i32 %79, ptr %73, align 4, !tbaa !8
  br label %lean_inc.exit39

80:                                               ; preds = %76
  %.not.i59 = icmp eq i32 %.val.i58, 0
  br i1 %.not.i59, label %lean_inc.exit39, label %81

81:                                               ; preds = %80
  tail call void @lean_inc_ref_cold(ptr noundef nonnull %73) #4
  br label %lean_inc.exit39

lean_inc.exit39:                                  ; preds = %81, %80, %78, %lean_dec.exit33
  %82 = ptrtoint ptr %0 to i64
  %83 = and i64 %82, 1
  %.not75 = icmp eq i64 %83, 0
  br i1 %.not75, label %84, label %lean_dec.exit32

84:                                               ; preds = %lean_inc.exit39
  %85 = load i32, ptr %0, align 4, !tbaa !8
  %86 = icmp sgt i32 %85, 1
  br i1 %86, label %87, label %89, !prof !13

87:                                               ; preds = %84
  %88 = add nsw i32 %85, -1
  store i32 %88, ptr %0, align 4, !tbaa !8
  br label %lean_dec.exit32

89:                                               ; preds = %84
  %.not.i49 = icmp eq i32 %85, 0
  br i1 %.not.i49, label %lean_dec.exit32, label %90

90:                                               ; preds = %89
  tail call void @lean_dec_ref_cold(ptr noundef nonnull %0) #4
  br label %lean_dec.exit32

lean_dec.exit32:                                  ; preds = %90, %89, %87, %lean_inc.exit39
  %91 = getelementptr inbounds nuw i8, ptr %73, i64 16
  %92 = load ptr, ptr %91, align 8, !tbaa !4
  %93 = ptrtoint ptr %92 to i64
  %94 = and i64 %93, 1
  %.not76 = icmp eq i64 %94, 0
  br i1 %.not76, label %95, label %lean_inc.exit38

95:                                               ; preds = %lean_dec.exit32
  %.val.i61 = load i32, ptr %92, align 4, !tbaa !8
  %96 = icmp sgt i32 %.val.i61, 0
  br i1 %96, label %97, label %99, !prof !13

97:                                               ; preds = %95
  %98 = add nuw i32 %.val.i61, 1
  store i32 %98, ptr %92, align 4, !tbaa !8
  br label %lean_inc.exit38

99:                                               ; preds = %95
  %.not.i62 = icmp eq i32 %.val.i61, 0
  br i1 %.not.i62, label %lean_inc.exit38, label %100

100:                                              ; preds = %99
  tail call void @lean_inc_ref_cold(ptr noundef nonnull %92) #4
  br label %lean_inc.exit38

lean_inc.exit38:                                  ; preds = %100, %99, %97, %lean_dec.exit32
  br i1 %.not74, label %101, label %lean_dec.exit31

101:                                              ; preds = %lean_inc.exit38
  %102 = load i32, ptr %73, align 4, !tbaa !8
  %103 = icmp sgt i32 %102, 1
  br i1 %103, label %104, label %106, !prof !13

104:                                              ; preds = %101
  %105 = add nsw i32 %102, -1
  store i32 %105, ptr %73, align 4, !tbaa !8
  br label %lean_dec.exit31

106:                                              ; preds = %101
  %.not.i51 = icmp eq i32 %102, 0
  br i1 %.not.i51, label %lean_dec.exit31, label %107

107:                                              ; preds = %106
  tail call void @lean_dec_ref_cold(ptr noundef nonnull %73) #4
  br label %lean_dec.exit31

lean_dec.exit31:                                  ; preds = %107, %106, %104, %lean_inc.exit38
  %108 = tail call ptr @lean_apply_2(ptr noundef %92, ptr noundef nonnull inttoptr (i64 1 to ptr), ptr noundef %56) #4
  br label %129

109:                                              ; preds = %lean_obj_tag.exit
  %110 = getelementptr inbounds nuw i8, ptr %7, i64 8
  %111 = load ptr, ptr %110, align 8, !tbaa !4
  %112 = ptrtoint ptr %111 to i64
  %113 = and i64 %112, 1
  %.not = icmp eq i64 %113, 0
  br i1 %.not, label %114, label %lean_inc.exit

114:                                              ; preds = %109
  %.val.i64 = load i32, ptr %111, align 4, !tbaa !8
  %115 = icmp sgt i32 %.val.i64, 0
  br i1 %115, label %116, label %118, !prof !13

116:                                              ; preds = %114
  %117 = add nuw i32 %.val.i64, 1
  store i32 %117, ptr %111, align 4, !tbaa !8
  br label %lean_inc.exit

118:                                              ; preds = %114
  %.not.i65 = icmp eq i32 %.val.i64, 0
  br i1 %.not.i65, label %lean_inc.exit, label %119

119:                                              ; preds = %118
  tail call void @lean_inc_ref_cold(ptr noundef nonnull %111) #4
  br label %lean_inc.exit

lean_inc.exit:                                    ; preds = %119, %118, %116, %109
  br i1 %.not.i55, label %120, label %lean_dec.exit

120:                                              ; preds = %lean_inc.exit
  %121 = load i32, ptr %7, align 4, !tbaa !8
  %122 = icmp sgt i32 %121, 1
  br i1 %122, label %123, label %125, !prof !13

123:                                              ; preds = %120
  %124 = add nsw i32 %121, -1
  store i32 %124, ptr %7, align 4, !tbaa !8
  br label %lean_dec.exit

125:                                              ; preds = %120
  %.not.i53 = icmp eq i32 %121, 0
  br i1 %.not.i53, label %lean_dec.exit, label %126

126:                                              ; preds = %125
  tail call void @lean_dec_ref_cold(ptr noundef nonnull %7) #4
  br label %lean_dec.exit

lean_dec.exit:                                    ; preds = %126, %125, %123, %lean_inc.exit
  %127 = add i64 %1, 1
  %128 = tail call ptr @l_Array_forIn_x27Unsafe_loop___at_Lake_RBArray_forIn___spec__1___rarg(ptr noundef %0, ptr noundef %2, ptr noundef %3, ptr noundef %4, ptr noundef %5, i64 noundef %6, i64 noundef %127, ptr noundef %111)
  br label %129

129:                                              ; preds = %lean_dec.exit, %lean_dec.exit31
  %.0 = phi ptr [ %108, %lean_dec.exit31 ], [ %128, %lean_dec.exit ]
  ret ptr %.0
}